target datalayout = "e-m:e-p270:32:32-p271:32:32-p272:64:64-i64:64-i128:128-f80:128-n8:16:32:64-S128"
target triple = "x86_64-pc-linux-gnu"

%"class.cv::RBaseStream" = type <{ ptr, i8, [7 x i8], ptr, ptr, ptr, ptr, i32, i32, i8, [7 x i8] }>
%"class.std::__cxx11::basic_string" = type { %"struct.std::__cxx11::basic_string<char>::_Alloc_hider", i64, %union.anon }
%"struct.std::__cxx11::basic_string<char>::_Alloc_hider" = type { ptr }
%union.anon = type { i64, [8 x i8] }
%"class.std::allocator" = type { i8 }

@.str.1 = private unnamed_addr constant [125 x i8] c"generated/home/dtcxzyw/WorkSpace/Projects/compilers/llvm-opt-benchmark/bench/opencv/opencv/modules/imgcodecs/src/bitstrm.cpp\00", align 1
@.str.11 = private unnamed_addr constant [11 x i8] c"count >= 0\00", align 1
@__func__._ZN2cv12RLByteStream8getBytesEPvi = private unnamed_addr constant [9 x i8] c"getBytes\00", align 1

; Function Attrs: mustprogress nounwind uwtable
define linkonce_odr hidden void @_ZNSt15__new_allocatorIcE10deallocateEPcm(ptr noundef nonnull align 1 dereferenceable(1) %0, ptr noundef %1, i64 noundef %2) #0 comdat align 2 {
  %4 = alloca ptr, align 8
  %5 = alloca ptr, align 8
  %6 = alloca i64, align 8
  store ptr %0, ptr %4, align 8, !tbaa !84
  store ptr %1, ptr %5, align 8, !tbaa !32
  store i64 %2, ptr %6, align 8, !tbaa !25
  %7 = load ptr, ptr %5, align 8, !tbaa !32
  call void @_ZdlPv(ptr noundef %7) #18
  ret void
}

; Function Attrs: mustprogress nounwind uwtable
define linkonce_odr hidden noundef ptr @_ZNSt19__ptr_traits_ptr_toIPKcS0_Lb0EE10pointer_toERS0_(ptr noundef nonnull align 1 dereferenceable(1) %0) #0 comdat align 2 {
  %2 = alloca ptr, align 8
  store ptr %0, ptr %2, align 8, !tbaa !32
  %3 = load ptr, ptr %2, align 8, !tbaa !32
  ret ptr %3
}

; Function Attrs: mustprogress uwtable
define linkonce_odr hidden void @_ZNSt16allocator_traitsISaIcEE10deallocateERS0_Pcm(ptr noundef nonnull align 1 dereferenceable(1) %0, ptr noundef %1, i64 noundef %2) #1 comdat align 2 {
  %4 = alloca ptr, align 8
  %5 = alloca ptr, align 8
  %6 = alloca i64, align 8
  store ptr %0, ptr %4, align 8, !tbaa !28
  store ptr %1, ptr %5, align 8, !tbaa !32
  store i64 %2, ptr %6, align 8, !tbaa !25
  %7 = load ptr, ptr %4, align 8, !tbaa !28
  %8 = load ptr, ptr %5, align 8, !tbaa !32
  %9 = load i64, ptr %6, align 8, !tbaa !25
  call void @_ZNSt15__new_allocatorIcE10deallocateEPcm(ptr noundef nonnull align 1 dereferenceable(1) %7, ptr noundef %8, i64 noundef %9)
  ret void
}

; Function Attrs: mustprogress nounwind uwtable
define available_externally noundef nonnull align 1 dereferenceable(1) ptr @_ZNSt7__cxx1112basic_stringIcSt11char_traitsIcESaIcEE16_M_get_allocatorEv(ptr noundef nonnull align 8 dereferenceable(32) %0) #0 align 2 {
  %2 = alloca ptr, align 8
  store ptr %0, ptr %2, align 8, !tbaa !30
  %3 = load ptr, ptr %2, align 8
  %4 = getelementptr inbounds nuw %"class.std::__cxx11::basic_string", ptr %3, i32 0, i32 0
  ret ptr %4
}

; Function Attrs: mustprogress nounwind uwtable
define available_externally noundef ptr @_ZNKSt7__cxx1112basic_stringIcSt11char_traitsIcESaIcEE13_M_local_dataEv(ptr noundef nonnull align 8 dereferenceable(32) %0) #0 align 2 {
  %2 = alloca ptr, align 8
  store ptr %0, ptr %2, align 8, !tbaa !30
  %3 = load ptr, ptr %2, align 8
  %4 = getelementptr inbounds nuw %"class.std::__cxx11::basic_string", ptr %3, i32 0, i32 2
  %5 = getelementptr inbounds [16 x i8], ptr %4, i64 0, i64 0
  %6 = call noundef ptr @_ZNSt19__ptr_traits_ptr_toIPKcS0_Lb0EE10pointer_toERS0_(ptr noundef nonnull align 1 dereferenceable(1) %5) #17
  ret ptr %6
}

; Function Attrs: mustprogress nounwind uwtable
define available_externally noundef ptr @_ZNKSt7__cxx1112basic_stringIcSt11char_traitsIcESaIcEE7_M_dataEv(ptr noundef nonnull align 8 dereferenceable(32) %0) #0 align 2 {
  %2 = alloca ptr, align 8
  store ptr %0, ptr %2, align 8, !tbaa !30
  %3 = load ptr, ptr %2, align 8
  %4 = getelementptr inbounds nuw %"class.std::__cxx11::basic_string", ptr %3, i32 0, i32 0
  %5 = getelementptr inbounds nuw %"struct.std::__cxx11::basic_string<char>::_Alloc_hider", ptr %4, i32 0, i32 0
  %6 = load ptr, ptr %5, align 8, !tbaa !81
  ret ptr %6
}

; Function Attrs: mustprogress nounwind uwtable
define available_externally void @_ZNSt7__cxx1112basic_stringIcSt11char_traitsIcESaIcEE10_M_destroyEm(ptr noundef nonnull align 8 dereferenceable(32) %0, i64 noundef %1) #0 align 2 personality ptr @__gxx_personality_v0 {
  %3 = alloca ptr, align 8
  %4 = alloca i64, align 8
  %5 = alloca ptr, align 8
  %6 = alloca i32, align 4
  store ptr %0, ptr %3, align 8, !tbaa !30
  store i64 %1, ptr %4, align 8, !tbaa !25
  %7 = load ptr, ptr %3, align 8
  %8 = invoke noundef nonnull align 1 dereferenceable(1) ptr @_ZNSt7__cxx1112basic_stringIcSt11char_traitsIcESaIcEE16_M_get_allocatorEv(ptr noundef nonnull align 8 dereferenceable(32) %7)
          to label %9 unwind label %14

9:                                                ; preds = %2
  %10 = call noundef ptr @_ZNKSt7__cxx1112basic_stringIcSt11char_traitsIcESaIcEE7_M_dataEv(ptr noundef nonnull align 8 dereferenceable(32) %7)
  %11 = load i64, ptr %4, align 8, !tbaa !25
  %12 = add i64 %11, 1
  invoke void @_ZNSt16allocator_traitsISaIcEE10deallocateERS0_Pcm(ptr noundef nonnull align 1 dereferenceable(1) %8, ptr noundef %10, i64 noundef %12)
          to label %13 unwind label %14

13:                                               ; preds = %9
  ret void

14:                                               ; preds = %9, %2
  %15 = landingpad { ptr, i32 }
          filter [0 x ptr] zeroinitializer
  %16 = extractvalue { ptr, i32 } %15, 0
  store ptr %16, ptr %5, align 8
  %17 = extractvalue { ptr, i32 } %15, 1
  store i32 %17, ptr %6, align 4
  br label %18

18:                                               ; preds = %14
  %19 = load ptr, ptr %5, align 8
  call void @__cxa_call_unexpected(ptr %19) #19
  unreachable
}

; Function Attrs: mustprogress uwtable
define available_externally noundef zeroext i1 @_ZNKSt7__cxx1112basic_stringIcSt11char_traitsIcESaIcEE11_M_is_localEv(ptr noundef nonnull align 8 dereferenceable(32) %0) #1 align 2 {
  %2 = alloca i1, align 1
  %3 = alloca ptr, align 8
  store ptr %0, ptr %3, align 8, !tbaa !30
  %4 = load ptr, ptr %3, align 8
  %5 = call noundef ptr @_ZNKSt7__cxx1112basic_stringIcSt11char_traitsIcESaIcEE7_M_dataEv(ptr noundef nonnull align 8 dereferenceable(32) %4)
  %6 = call noundef ptr @_ZNKSt7__cxx1112basic_stringIcSt11char_traitsIcESaIcEE13_M_local_dataEv(ptr noundef nonnull align 8 dereferenceable(32) %4)
  %7 = icmp eq ptr %5, %6
  br i1 %7, label %8, label %14

8:                                                ; preds = %1
  %9 = getelementptr inbounds nuw %"class.std::__cxx11::basic_string", ptr %4, i32 0, i32 1
  %10 = load i64, ptr %9, align 8, !tbaa !86
  %11 = icmp ugt i64 %10, 15
  br i1 %11, label %12, label %13

12:                                               ; preds = %8
  unreachable

13:                                               ; preds = %8
  store i1 true, ptr %2, align 1
  br label %15

14:                                               ; preds = %1
  store i1 false, ptr %2, align 1
  br label %15

15:                                               ; preds = %14, %13
  %16 = load i1, ptr %2, align 1
  ret i1 %16
}

; Function Attrs: noinline noreturn nounwind uwtable
define linkonce_odr hidden void @__clang_call_terminate(ptr noundef %0) #3 comdat {
  %2 = call ptr @__cxa_begin_catch(ptr %0) #17
  call void @_ZSt9terminatev() #16
  unreachable
}

; Function Attrs: mustprogress uwtable
define available_externally void @_ZNSt7__cxx1112basic_stringIcSt11char_traitsIcESaIcEE10_M_disposeEv(ptr noundef nonnull align 8 dereferenceable(32) %0) #1 align 2 {
  %2 = alloca ptr, align 8
  store ptr %0, ptr %2, align 8, !tbaa !30
  %3 = load ptr, ptr %2, align 8
  %4 = call noundef zeroext i1 @_ZNKSt7__cxx1112basic_stringIcSt11char_traitsIcESaIcEE11_M_is_localEv(ptr noundef nonnull align 8 dereferenceable(32) %3)
  br i1 %4, label %8, label %5

5:                                                ; preds = %1
  %6 = getelementptr inbounds nuw %"class.std::__cxx11::basic_string", ptr %3, i32 0, i32 2
  %7 = load i64, ptr %6, align 8, !tbaa !52
  call void @_ZNSt7__cxx1112basic_stringIcSt11char_traitsIcESaIcEE10_M_destroyEm(ptr noundef nonnull align 8 dereferenceable(32) %3, i64 noundef %7) #17
  br label %8

8:                                                ; preds = %5, %1
  ret void
}

; Function Attrs: mustprogress nounwind uwtable
define linkonce_odr hidden void @_ZNSt15__new_allocatorIcEC2Ev(ptr noundef nonnull align 1 dereferenceable(1) %0) unnamed_addr #0 comdat align 2 {
  %2 = alloca ptr, align 8
  store ptr %0, ptr %2, align 8, !tbaa !84
  ret void
}

; Function Attrs: mustprogress nounwind uwtable
define linkonce_odr hidden void @_ZNSt15__new_allocatorIcED2Ev(ptr noundef nonnull align 1 dereferenceable(1) %0) unnamed_addr #0 comdat align 2 {
  %2 = alloca ptr, align 8
  store ptr %0, ptr %2, align 8, !tbaa !84
  ret void
}

; Function Attrs: mustprogress nounwind uwtable
define available_externally void @_ZNSt7__cxx1112basic_stringIcSt11char_traitsIcESaIcEED2Ev(ptr noundef nonnull align 8 dereferenceable(32) %0) unnamed_addr #0 align 2 personality ptr @__gxx_personality_v0 {
  %2 = alloca ptr, align 8
  store ptr %0, ptr %2, align 8, !tbaa !30
  %3 = load ptr, ptr %2, align 8
  invoke void @_ZNSt7__cxx1112basic_stringIcSt11char_traitsIcESaIcEE10_M_disposeEv(ptr noundef nonnull align 8 dereferenceable(32) %3)
          to label %4 unwind label %6

4:                                                ; preds = %1
  %5 = getelementptr inbounds nuw %"class.std::__cxx11::basic_string", ptr %3, i32 0, i32 0
  call void @_ZNSt15__new_allocatorIcED2Ev(ptr noundef nonnull align 8 dereferenceable(8) %5) #17
  ret void

6:                                                ; preds = %1
  %7 = landingpad { ptr, i32 }
          catch ptr null
  %8 = extractvalue { ptr, i32 } %7, 0
  call void @__clang_call_terminate(ptr %8) #16
  unreachable
}

; Function Attrs: mustprogress nounwind uwtable
define available_externally void @_ZNSaIcEC2Ev(ptr noundef nonnull align 1 dereferenceable(1) %0) unnamed_addr #0 align 2 {
  %2 = alloca ptr, align 8
  store ptr %0, ptr %2, align 8, !tbaa !28
  %3 = load ptr, ptr %2, align 8
  call void @_ZNSt15__new_allocatorIcEC2Ev(ptr noundef nonnull align 1 dereferenceable(1) %3) #17
  ret void
}

; Function Attrs: mustprogress uwtable
define hidden noundef i32 @_ZN2cv12RLByteStream8getBytesEPvi(ptr noundef nonnull align 8 dereferenceable(57) %0, ptr noundef %1, i32 noundef %2) #1 align 2 personality ptr @__gxx_personality_v0 {
  %4 = alloca ptr, align 8
  %5 = alloca ptr, align 8
  %6 = alloca i32, align 4
  %7 = alloca ptr, align 8
  %8 = alloca i32, align 4
  %9 = alloca %"class.std::__cxx11::basic_string", align 8
  %10 = alloca %"class.std::allocator", align 1
  %11 = alloca ptr, align 8
  %12 = alloca i32, align 4
  %13 = alloca i32, align 4
  store ptr %0, ptr %4, align 8, !tbaa !50
  store ptr %1, ptr %5, align 8, !tbaa !53
  store i32 %2, ptr %6, align 4, !tbaa !27
  %14 = load ptr, ptr %4, align 8
  call void @llvm.lifetime.start.p0(i64 8, ptr %7) #17
  %15 = load ptr, ptr %5, align 8, !tbaa !53
  store ptr %15, ptr %7, align 8, !tbaa !32
  call void @llvm.lifetime.start.p0(i64 4, ptr %8) #17
  store i32 0, ptr %8, align 4, !tbaa !27
  br label %16

16:                                               ; preds = %3
  %17 = load i32, ptr %6, align 4, !tbaa !27
  %18 = icmp sge i32 %17, 0
  br i1 %18, label %19, label %20

19:                                               ; preds = %16
  br label %32

20:                                               ; preds = %16
  call void @llvm.lifetime.start.p0(i64 32, ptr %9) #17
  call void @llvm.lifetime.start.p0(i64 1, ptr %10) #17
  call void @_ZNSaIcEC2Ev(ptr noundef nonnull align 1 dereferenceable(1) %10) #17
  invoke void @_ZNSt7__cxx1112basic_stringIcSt11char_traitsIcESaIcEEC2EPKcRKS3_(ptr noundef nonnull align 8 dereferenceable(32) %9, ptr noundef @.str.11, ptr noundef nonnull align 1 dereferenceable(1) %10)
          to label %21 unwind label %23

21:                                               ; preds = %20
  invoke void @_ZN2cv5errorEiRKNSt7__cxx1112basic_stringIcSt11char_traitsIcESaIcEEEPKcS9_i(i32 noundef -215, ptr noundef nonnull align 8 dereferenceable(32) %9, ptr noundef @__func__._ZN2cv12RLByteStream8getBytesEPvi, ptr noundef @.str.1, i32 noundef 189) #19
          to label %22 unwind label %27

22:                                               ; preds = %21
  unreachable

23:                                               ; preds = %20
  %24 = landingpad { ptr, i32 }
          cleanup
  %25 = extractvalue { ptr, i32 } %24, 0
  store ptr %25, ptr %11, align 8
  %26 = extractvalue { ptr, i32 } %24, 1
  store i32 %26, ptr %12, align 4
  br label %31

27:                                               ; preds = %21
  %28 = landingpad { ptr, i32 }
          cleanup
  %29 = extractvalue { ptr, i32 } %28, 0
  store ptr %29, ptr %11, align 8
  %30 = extractvalue { ptr, i32 } %28, 1
  store i32 %30, ptr %12, align 4
  call void @_ZNSt7__cxx1112basic_stringIcSt11char_traitsIcESaIcEED2Ev(ptr noundef nonnull align 8 dereferenceable(32) %9) #17
  br label %31

31:                                               ; preds = %27, %23
  call void @_ZNSt15__new_allocatorIcED2Ev(ptr noundef nonnull align 1 dereferenceable(1) %10) #17
  call void @llvm.lifetime.end.p0(i64 1, ptr %10) #17
  call void @llvm.lifetime.end.p0(i64 32, ptr %9) #17
  call void @llvm.lifetime.end.p0(i64 4, ptr %8) #17
  call void @llvm.lifetime.end.p0(i64 8, ptr %7) #17
  br label %84

32:                                               ; preds = %19
  br label %33

33:                                               ; preds = %32
  br label %34

34:                                               ; preds = %33
  br label %35

35:                                               ; preds = %61, %34
  %36 = load i32, ptr %6, align 4, !tbaa !27
  %37 = icmp sgt i32 %36, 0
  br i1 %37, label %38, label %82

38:                                               ; preds = %35
  call void @llvm.lifetime.start.p0(i64 4, ptr %13) #17
  br label %39

39:                                               ; preds = %57, %38
  %40 = getelementptr inbounds nuw %"class.cv::RBaseStream", ptr %14, i32 0, i32 4
  %41 = load ptr, ptr %40, align 8, !tbaa !19
  %42 = getelementptr inbounds nuw %"class.cv::RBaseStream", ptr %14, i32 0, i32 5
  %43 = load ptr, ptr %42, align 8, !tbaa !20
  %44 = ptrtoint ptr %41 to i64
  %45 = ptrtoint ptr %43 to i64
  %46 = sub i64 %44, %45
  %47 = trunc i64 %46 to i32
  store i32 %47, ptr %13, align 4, !tbaa !27
  %48 = load i32, ptr %13, align 4, !tbaa !27
  %49 = load i32, ptr %6, align 4, !tbaa !27
  %50 = icmp sgt i32 %48, %49
  br i1 %50, label %51, label %53

51:                                               ; preds = %39
  %52 = load i32, ptr %6, align 4, !tbaa !27
  store i32 %52, ptr %13, align 4, !tbaa !27
  br label %53

53:                                               ; preds = %51, %39
  %54 = load i32, ptr %13, align 4, !tbaa !27
  %55 = icmp sgt i32 %54, 0
  br i1 %55, label %56, label %57

56:                                               ; preds = %53
  br label %61

57:                                               ; preds = %53
  %58 = load ptr, ptr %14, align 8, !tbaa !21
  %59 = getelementptr inbounds ptr, ptr %58, i64 5
  %60 = load ptr, ptr %59, align 8
  call void %60(ptr noundef nonnull align 8 dereferenceable(57) %14)
  br label %39, !llvm.loop !54

61:                                               ; preds = %56
  %62 = load ptr, ptr %7, align 8, !tbaa !32
  %63 = getelementptr inbounds nuw %"class.cv::RBaseStream", ptr %14, i32 0, i32 5
  %64 = load ptr, ptr %63, align 8, !tbaa !20
  %65 = load i32, ptr %13, align 4, !tbaa !27
  %66 = sext i32 %65 to i64
  call void @llvm.memcpy.p0.p0.i64(ptr align 1 %62, ptr align 1 %64, i64 %66, i1 false)
  %67 = load i32, ptr %13, align 4, !tbaa !27
  %68 = getelementptr inbounds nuw %"class.cv::RBaseStream", ptr %14, i32 0, i32 5
  %69 = load ptr, ptr %68, align 8, !tbaa !20
  %70 = sext i32 %67 to i64
  %71 = getelementptr inbounds i8, ptr %69, i64 %70
  store ptr %71, ptr %68, align 8, !tbaa !20
  %72 = load i32, ptr %13, align 4, !tbaa !27
  %73 = load ptr, ptr %7, align 8, !tbaa !32
  %74 = sext i32 %72 to i64
  %75 = getelementptr inbounds i8, ptr %73, i64 %74
  store ptr %75, ptr %7, align 8, !tbaa !32
  %76 = load i32, ptr %13, align 4, !tbaa !27
  %77 = load i32, ptr %6, align 4, !tbaa !27
  %78 = sub nsw i32 %77, %76
  store i32 %78, ptr %6, align 4, !tbaa !27
  %79 = load i32, ptr %13, align 4, !tbaa !27
  %80 = load i32, ptr %8, align 4, !tbaa !27
  %81 = add nsw i32 %80, %79
  store i32 %81, ptr %8, align 4, !tbaa !27
  call void @llvm.lifetime.end.p0(i64 4, ptr %13) #17
  br label %35, !llvm.loop !56

82:                                               ; preds = %35
  %83 = load i32, ptr %8, align 4, !tbaa !27
  call void @llvm.lifetime.end.p0(i64 4, ptr %8) #17
  call void @llvm.lifetime.end.p0(i64 8, ptr %7) #17
  ret i32 %83

84:                                               ; preds = %31
  %85 = load ptr, ptr %11, align 8
  %86 = load i32, ptr %12, align 4
  %87 = insertvalue { ptr, i32 } poison, ptr %85, 0
  %88 = insertvalue { ptr, i32 } %87, i32 %86, 1
  resume { ptr, i32 } %88
}