; Function Attrs: mustprogress uwtable
define hidden noundef range(i32 0, -2147483648) i32 @_ZN2cv12RLByteStream8getBytesEPvi(ptr noundef nonnull align 8 dereferenceable(57) %0, ptr noundef writeonly captures(none) %1, i32 noundef %2) local_unnamed_addr #1 align 2 personality ptr @__gxx_personality_v0 {
  %4 = alloca %"class.std::__cxx11::basic_string", align 8
  %5 = alloca %"class.std::allocator", align 1
  %6 = icmp sgt i32 %2, -1
  br i1 %6, label %.preheader27, label %9

.preheader27:                                     ; preds = %3
  %.not = icmp eq i32 %2, 0
  br i1 %.not, label %._crit_edge34, label %.preheader.lr.ph

.preheader.lr.ph:                                 ; preds = %.preheader27
  %7 = getelementptr inbounds nuw i8, ptr %0, i64 24
  %8 = getelementptr inbounds nuw i8, ptr %0, i64 32
  %.pre = load ptr, ptr %8, align 8, !tbaa !18
  br label %.preheader

9:                                                ; preds = %3
  call void @llvm.lifetime.start.p0(i64 32, ptr nonnull %4) #22
  call void @llvm.lifetime.start.p0(i64 1, ptr nonnull %5) #22
  call void @_ZNSt7__cxx1112basic_stringIcSt11char_traitsIcESaIcEEC2EPKcRKS3_(ptr noundef nonnull align 8 dereferenceable(32) %4, ptr noundef nonnull @.str.11, ptr noundef nonnull align 1 dereferenceable(1) %5)
  invoke void @_ZN2cv5errorEiRKNSt7__cxx1112basic_stringIcSt11char_traitsIcESaIcEEEPKcS9_i(i32 noundef -215, ptr noundef nonnull align 8 dereferenceable(32) %4, ptr noundef nonnull @__func__._ZN2cv12RLByteStream8getBytesEPvi, ptr noundef nonnull @.str.1, i32 noundef 189) #24
          to label %10 unwind label %11

10:                                               ; preds = %9
  unreachable

11:                                               ; preds = %9
  %12 = landingpad { ptr, i32 }
          cleanup
  %13 = load ptr, ptr %4, align 8, !tbaa !23
  %14 = getelementptr inbounds nuw i8, ptr %4, i64 16
  %15 = icmp eq ptr %13, %14
  br i1 %15, label %_ZNKSt7__cxx1112basic_stringIcSt11char_traitsIcESaIcEE11_M_is_localEv.exit.thread.i.i, label %_ZNKSt7__cxx1112basic_stringIcSt11char_traitsIcESaIcEE11_M_is_localEv.exit.i.i

_ZNKSt7__cxx1112basic_stringIcSt11char_traitsIcESaIcEE11_M_is_localEv.exit.thread.i.i: ; preds = %11
  %16 = getelementptr inbounds nuw i8, ptr %4, i64 8
  %17 = load i64, ptr %16, align 8, !tbaa !27
  %18 = icmp ult i64 %17, 16
  call void @llvm.assume(i1 %18)
  br label %_ZNSt7__cxx1112basic_stringIcSt11char_traitsIcESaIcEED2Ev.exit

_ZNKSt7__cxx1112basic_stringIcSt11char_traitsIcESaIcEE11_M_is_localEv.exit.i.i: ; preds = %11
  call void @_ZdlPv(ptr noundef %13) #23
  br label %_ZNSt7__cxx1112basic_stringIcSt11char_traitsIcESaIcEED2Ev.exit

_ZNSt7__cxx1112basic_stringIcSt11char_traitsIcESaIcEED2Ev.exit: ; preds = %_ZNKSt7__cxx1112basic_stringIcSt11char_traitsIcESaIcEE11_M_is_localEv.exit.i.i, %_ZNKSt7__cxx1112basic_stringIcSt11char_traitsIcESaIcEE11_M_is_localEv.exit.thread.i.i
  call void @llvm.lifetime.end.p0(i64 1, ptr nonnull %5) #22
  call void @llvm.lifetime.end.p0(i64 32, ptr nonnull %4) #22
  resume { ptr, i32 } %12

.preheader:                                       ; preds = %.preheader.lr.ph, %._crit_edge
  %19 = phi ptr [ %.pre, %.preheader.lr.ph ], [ %39, %._crit_edge ]
  %.02133 = phi i32 [ 0, %.preheader.lr.ph ], [ %42, %._crit_edge ]
  %.02232 = phi ptr [ %1, %.preheader.lr.ph ], [ %40, %._crit_edge ]
  %.02331 = phi i32 [ %2, %.preheader.lr.ph ], [ %41, %._crit_edge ]
  %20 = load ptr, ptr %7, align 8, !tbaa !17
  %21 = ptrtoint ptr %20 to i64
  %22 = ptrtoint ptr %19 to i64
  %23 = sub i64 %21, %22
  %24 = trunc i64 %23 to i32
  %25 = icmp sgt i32 %24, 0
  br i1 %25, label %._crit_edge, label %.lr.ph

.lr.ph:                                           ; preds = %.preheader, %.lr.ph
  %26 = load ptr, ptr %0, align 8, !tbaa !19
  %27 = getelementptr inbounds nuw i8, ptr %26, i64 40
  %28 = load ptr, ptr %27, align 8
  tail call void %28(ptr noundef nonnull align 8 dereferenceable(57) %0)
  %29 = load ptr, ptr %7, align 8, !tbaa !17
  %30 = load ptr, ptr %8, align 8, !tbaa !18
  %31 = ptrtoint ptr %29 to i64
  %32 = ptrtoint ptr %30 to i64
  %33 = sub i64 %31, %32
  %34 = trunc i64 %33 to i32
  %35 = icmp sgt i32 %34, 0
  br i1 %35, label %._crit_edge, label %.lr.ph, !llvm.loop !43

._crit_edge:                                      ; preds = %.lr.ph, %.preheader
  %.lcssa28 = phi ptr [ %19, %.preheader ], [ %30, %.lr.ph ]
  %.lcssa = phi i32 [ %24, %.preheader ], [ %34, %.lr.ph ]
  %36 = tail call i32 @llvm.umin.i32(i32 %.02331, i32 %.lcssa)
  %37 = zext nneg i32 %36 to i64
  tail call void @llvm.memcpy.p0.p0.i64(ptr align 1 %.02232, ptr align 1 %.lcssa28, i64 %37, i1 false)
  %38 = load ptr, ptr %8, align 8, !tbaa !18
  %39 = getelementptr inbounds nuw i8, ptr %38, i64 %37
  store ptr %39, ptr %8, align 8, !tbaa !18
  %40 = getelementptr inbounds nuw i8, ptr %.02232, i64 %37
  %41 = sub nsw i32 %.02331, %36
  %42 = add nuw nsw i32 %36, %.02133
  %43 = icmp sgt i32 %41, 0
  br i1 %43, label %.preheader, label %._crit_edge34, !llvm.loop !45

._crit_edge34:                                    ; preds = %._crit_edge, %.preheader27
  %.021.lcssa = phi i32 [ 0, %.preheader27 ], [ %42, %._crit_edge ]
  ret i32 %.021.lcssa
}